target datalayout = "e-m:e-p270:32:32-p271:32:32-p272:64:64-i64:64-i128:128-f80:128-n8:16:32:64-S128"
target triple = "x86_64-pc-linux-gnu"

%struct.AVFilterContext = type { ptr, ptr, ptr, ptr, ptr, i32, ptr, ptr, i32, ptr, ptr, i32, i32, ptr, ptr, ptr, ptr, i32, ptr, i32, i32 }
%struct.FadeContext = type { ptr, i32, i32, i32, i32, i32, i32, i32, i32, i32, i32, i32, i8, i8, [4 x i8], i32, i32, i64, i64, i64, i64, i32, [4 x i8], i32, ptr, ptr, ptr }

@.str.10 = private unnamed_addr constant [3 x i8] c"in\00", align 1
@.str.12 = private unnamed_addr constant [4 x i8] c"out\00", align 1
@.str.33 = private unnamed_addr constant [46 x i8] c"type:%s start_frame:%d nb_frames:%d alpha:%d\0A\00", align 1
@.str.34 = private unnamed_addr constant [44 x i8] c"type:%s start_time:%f duration:%f alpha:%d\0A\00", align 1
@.str.35 = private unnamed_addr constant [5 x i8] c"\00\00\00\FF\00", align 1

; Function Attrs: cold nounwind optsize uwtable
define internal i32 @init(ptr noundef %0) #0 {
  %2 = alloca ptr, align 8
  %3 = alloca ptr, align 8
  store ptr %0, ptr %2, align 8, !tbaa !4
  call void @llvm.lifetime.start.p0(i64 8, ptr %3) #11
  %4 = load ptr, ptr %2, align 8, !tbaa !4
  %5 = getelementptr inbounds nuw %struct.AVFilterContext, ptr %4, i32 0, i32 9
  %6 = load ptr, ptr %5, align 8, !tbaa !9
  store ptr %6, ptr %3, align 8, !tbaa !22
  %7 = load ptr, ptr %3, align 8, !tbaa !22
  %8 = getelementptr inbounds nuw %struct.FadeContext, ptr %7, i32 0, i32 5
  %9 = load i32, ptr %8, align 8, !tbaa !24
  %10 = sdiv i32 65536, %9
  %11 = load ptr, ptr %3, align 8, !tbaa !22
  %12 = getelementptr inbounds nuw %struct.FadeContext, ptr %11, i32 0, i32 3
  store i32 %10, ptr %12, align 8, !tbaa !27
  %13 = load ptr, ptr %3, align 8, !tbaa !22
  %14 = getelementptr inbounds nuw %struct.FadeContext, ptr %13, i32 0, i32 21
  store i32 0, ptr %14, align 8, !tbaa !28
  %15 = load ptr, ptr %3, align 8, !tbaa !22
  %16 = getelementptr inbounds nuw %struct.FadeContext, ptr %15, i32 0, i32 18
  %17 = load i64, ptr %16, align 8, !tbaa !29
  %18 = icmp ne i64 %17, 0
  br i1 %18, label %19, label %22

19:                                               ; preds = %1
  %20 = load ptr, ptr %3, align 8, !tbaa !22
  %21 = getelementptr inbounds nuw %struct.FadeContext, ptr %20, i32 0, i32 5
  store i32 0, ptr %21, align 8, !tbaa !24
  br label %22

22:                                               ; preds = %19, %1
  %23 = load ptr, ptr %3, align 8, !tbaa !22
  %24 = getelementptr inbounds nuw %struct.FadeContext, ptr %23, i32 0, i32 4
  %25 = load i32, ptr %24, align 4, !tbaa !30
  %26 = icmp ne i32 %25, 0
  br i1 %26, label %32, label %27

27:                                               ; preds = %22
  %28 = load ptr, ptr %3, align 8, !tbaa !22
  %29 = getelementptr inbounds nuw %struct.FadeContext, ptr %28, i32 0, i32 5
  %30 = load i32, ptr %29, align 8, !tbaa !24
  %31 = icmp ne i32 %30, 0
  br i1 %31, label %32, label %48

32:                                               ; preds = %27, %22
  %33 = load ptr, ptr %2, align 8, !tbaa !4
  %34 = load ptr, ptr %3, align 8, !tbaa !22
  %35 = getelementptr inbounds nuw %struct.FadeContext, ptr %34, i32 0, i32 1
  %36 = load i32, ptr %35, align 8, !tbaa !31
  %37 = icmp eq i32 %36, 0
  %38 = select i1 %37, ptr @.str.10, ptr @.str.12
  %39 = load ptr, ptr %3, align 8, !tbaa !22
  %40 = getelementptr inbounds nuw %struct.FadeContext, ptr %39, i32 0, i32 4
  %41 = load i32, ptr %40, align 4, !tbaa !30
  %42 = load ptr, ptr %3, align 8, !tbaa !22
  %43 = getelementptr inbounds nuw %struct.FadeContext, ptr %42, i32 0, i32 5
  %44 = load i32, ptr %43, align 8, !tbaa !24
  %45 = load ptr, ptr %3, align 8, !tbaa !22
  %46 = getelementptr inbounds nuw %struct.FadeContext, ptr %45, i32 0, i32 15
  %47 = load i32, ptr %46, align 4, !tbaa !32
  call void (ptr, i32, ptr, ...) @av_log(ptr noundef %33, i32 noundef 40, ptr noundef @.str.33, ptr noundef %38, i32 noundef %41, i32 noundef %44, i32 noundef %47)
  br label %48

48:                                               ; preds = %32, %27
  %49 = load ptr, ptr %3, align 8, !tbaa !22
  %50 = getelementptr inbounds nuw %struct.FadeContext, ptr %49, i32 0, i32 17
  %51 = load i64, ptr %50, align 8, !tbaa !33
  %52 = icmp ne i64 %51, 0
  br i1 %52, label %58, label %53

53:                                               ; preds = %48
  %54 = load ptr, ptr %3, align 8, !tbaa !22
  %55 = getelementptr inbounds nuw %struct.FadeContext, ptr %54, i32 0, i32 18
  %56 = load i64, ptr %55, align 8, !tbaa !29
  %57 = icmp ne i64 %56, 0
  br i1 %57, label %58, label %78

58:                                               ; preds = %53, %48
  %59 = load ptr, ptr %2, align 8, !tbaa !4
  %60 = load ptr, ptr %3, align 8, !tbaa !22
  %61 = getelementptr inbounds nuw %struct.FadeContext, ptr %60, i32 0, i32 1
  %62 = load i32, ptr %61, align 8, !tbaa !31
  %63 = icmp eq i32 %62, 0
  %64 = select i1 %63, ptr @.str.10, ptr @.str.12
  %65 = load ptr, ptr %3, align 8, !tbaa !22
  %66 = getelementptr inbounds nuw %struct.FadeContext, ptr %65, i32 0, i32 17
  %67 = load i64, ptr %66, align 8, !tbaa !33
  %68 = uitofp i64 %67 to double
  %69 = fdiv nsz double %68, 1.000000e+06
  %70 = load ptr, ptr %3, align 8, !tbaa !22
  %71 = getelementptr inbounds nuw %struct.FadeContext, ptr %70, i32 0, i32 18
  %72 = load i64, ptr %71, align 8, !tbaa !29
  %73 = uitofp i64 %72 to double
  %74 = fdiv nsz double %73, 1.000000e+06
  %75 = load ptr, ptr %3, align 8, !tbaa !22
  %76 = getelementptr inbounds nuw %struct.FadeContext, ptr %75, i32 0, i32 15
  %77 = load i32, ptr %76, align 4, !tbaa !32
  call void (ptr, i32, ptr, ...) @av_log(ptr noundef %59, i32 noundef 40, ptr noundef @.str.34, ptr noundef %64, double noundef %69, double noundef %74, i32 noundef %77)
  br label %78

78:                                               ; preds = %58, %53
  %79 = load ptr, ptr %3, align 8, !tbaa !22
  %80 = getelementptr inbounds nuw %struct.FadeContext, ptr %79, i32 0, i32 22
  %81 = getelementptr inbounds [4 x i8], ptr %80, i64 0, i64 0
  %82 = call i32 @memcmp(ptr noundef %81, ptr noundef @.str.35, i64 noundef 4) #12
  %83 = icmp ne i32 %82, 0
  %84 = xor i1 %83, true
  %85 = zext i1 %84 to i32
  %86 = load ptr, ptr %3, align 8, !tbaa !22
  %87 = getelementptr inbounds nuw %struct.FadeContext, ptr %86, i32 0, i32 23
  store i32 %85, ptr %87, align 8, !tbaa !34
  call void @llvm.lifetime.end.p0(i64 8, ptr %3) #11
  ret i32 0
}