; Function Attrs: cold nounwind optsize uwtable
define internal noundef i32 @init(ptr noundef %0) #0 {
  %2 = getelementptr inbounds nuw i8, ptr %0, i64 72
  %3 = load ptr, ptr %2, align 8, !tbaa !4
  %4 = getelementptr inbounds nuw i8, ptr %3, i64 24
  %5 = load i32, ptr %4, align 8, !tbaa !20
  %6 = sdiv i32 65536, %5
  %7 = getelementptr inbounds nuw i8, ptr %3, i64 16
  store i32 %6, ptr %7, align 8, !tbaa !23
  %8 = getelementptr inbounds nuw i8, ptr %3, i64 104
  store i32 0, ptr %8, align 8, !tbaa !24
  %9 = getelementptr inbounds nuw i8, ptr %3, i64 80
  %10 = load i64, ptr %9, align 8, !tbaa !25
  %.not = icmp eq i64 %10, 0
  br i1 %.not, label %11, label %.thread

11:                                               ; preds = %1
  %12 = getelementptr inbounds nuw i8, ptr %3, i64 20
  %13 = load i32, ptr %12, align 4, !tbaa !26
  br label %16

.thread:                                          ; preds = %1
  store i32 0, ptr %4, align 8, !tbaa !20
  %14 = getelementptr inbounds nuw i8, ptr %3, i64 20
  %15 = load i32, ptr %14, align 4, !tbaa !26
  %.not2228 = icmp eq i32 %15, 0
  br i1 %.not2228, label %.thread29, label %16

16:                                               ; preds = %11, %.thread
  %17 = phi i32 [ %15, %.thread ], [ %13, %11 ]
  %18 = phi i32 [ 0, %.thread ], [ %5, %11 ]
  %19 = getelementptr inbounds nuw i8, ptr %3, i64 8
  %20 = load i32, ptr %19, align 8, !tbaa !27
  %21 = icmp eq i32 %20, 0
  %22 = select i1 %21, ptr @.str.10, ptr @.str.12
  %23 = getelementptr inbounds nuw i8, ptr %3, i64 60
  %24 = load i32, ptr %23, align 4, !tbaa !28
  tail call void (ptr, i32, ptr, ...) @av_log(ptr noundef nonnull %0, i32 noundef 40, ptr noundef nonnull @.str.33, ptr noundef nonnull %22, i32 noundef %17, i32 noundef %18, i32 noundef %24) #9
  %.pre.pre = load i64, ptr %9, align 8, !tbaa !25
  br label %.thread29

.thread29:                                        ; preds = %.thread, %16
  %.pre = phi i64 [ %.pre.pre, %16 ], [ %10, %.thread ]
  %25 = getelementptr inbounds nuw i8, ptr %3, i64 72
  %26 = load i64, ptr %25, align 8, !tbaa !29
  %.not24 = icmp eq i64 %26, 0
  %.not25 = icmp eq i64 %.pre, 0
  %or.cond = select i1 %.not24, i1 %.not25, i1 false
  br i1 %or.cond, label %38, label %27

27:                                               ; preds = %.thread29
  %28 = getelementptr inbounds nuw i8, ptr %3, i64 8
  %29 = load i32, ptr %28, align 8, !tbaa !27
  %30 = icmp eq i32 %29, 0
  %31 = select i1 %30, ptr @.str.10, ptr @.str.12
  %32 = uitofp i64 %26 to double
  %33 = fdiv nsz double %32, 1.000000e+06
  %34 = uitofp i64 %.pre to double
  %35 = fdiv nsz double %34, 1.000000e+06
  %36 = getelementptr inbounds nuw i8, ptr %3, i64 60
  %37 = load i32, ptr %36, align 4, !tbaa !28
  tail call void (ptr, i32, ptr, ...) @av_log(ptr noundef nonnull %0, i32 noundef 40, ptr noundef nonnull @.str.34, ptr noundef nonnull %31, double noundef %33, double noundef %35, i32 noundef %37) #9
  br label %38

38:                                               ; preds = %.thread29, %27
  %39 = getelementptr inbounds nuw i8, ptr %3, i64 108
  %bcmp = tail call i32 @bcmp(ptr noundef nonnull dereferenceable(4) %39, ptr noundef nonnull dereferenceable(4) @.str.35, i64 4)
  %.not26 = icmp eq i32 %bcmp, 0
  %40 = zext i1 %.not26 to i32
  %41 = getelementptr inbounds nuw i8, ptr %3, i64 112
  store i32 %40, ptr %41, align 8, !tbaa !30
  ret i32 0
}